; Function Attrs: mustprogress uwtable
define void @proj_operation_factory_context_set_desired_accuracy(ptr noundef %0, ptr noundef readonly %1, double noundef %2) local_unnamed_addr #2 personality ptr @__gxx_personality_v0 {
  %4 = icmp eq ptr %0, null
  br i1 %4, label %5, label %7

5:                                                ; preds = %3
  %6 = tail call noundef ptr @_Z18pj_get_default_ctxv()
  br label %7

7:                                                ; preds = %3, %5
  %.0 = phi ptr [ %6, %5 ], [ %0, %3 ]
  %.not = icmp eq ptr %1, null
  br i1 %.not, label %8, label %9

8:                                                ; preds = %7
  tail call void @_Z22proj_context_errno_setP6pj_ctxi(ptr noundef %.0, i32 noundef 4097)
  tail call fastcc void @_ZL14proj_log_errorP6pj_ctxPKcS2_(ptr noundef %.0, ptr noundef nonnull @__FUNCTION__.proj_operation_factory_context_set_desired_accuracy, ptr noundef nonnull @.str.2)
  br label %24

9:                                                ; preds = %7
  %10 = load ptr, ptr %1, align 8
  invoke void @_ZN5osgeo4proj9operation26CoordinateOperationContext18setDesiredAccuracyEd(ptr noundef nonnull align 8 dereferenceable(16) %10, double noundef %2)
          to label %24 unwind label %11

11:                                               ; preds = %9
  %12 = landingpad { ptr, i32 }
          catch ptr @_ZTISt9exception
  %13 = extractvalue { ptr, i32 } %12, 1
  %14 = tail call i32 @llvm.eh.typeid.for(ptr nonnull @_ZTISt9exception) #27
  %15 = icmp eq i32 %13, %14
  br i1 %15, label %16, label %27

16:                                               ; preds = %11
  %17 = extractvalue { ptr, i32 } %12, 0
  %18 = tail call ptr @__cxa_begin_catch(ptr %17) #27
  %19 = load ptr, ptr %18, align 8
  %20 = getelementptr inbounds i8, ptr %19, i64 16
  %21 = load ptr, ptr %20, align 8
  %22 = tail call noundef ptr %21(ptr noundef nonnull align 8 dereferenceable(8) %18) #27
  invoke fastcc void @_ZL14proj_log_errorP6pj_ctxPKcS2_(ptr noundef %.0, ptr noundef nonnull @__FUNCTION__.proj_operation_factory_context_set_desired_accuracy, ptr noundef %22)
          to label %23 unwind label %25

23:                                               ; preds = %16
  tail call void @__cxa_end_catch()
  br label %24

24:                                               ; preds = %9, %23, %8
  ret void

25:                                               ; preds = %16
  %26 = landingpad { ptr, i32 }
          cleanup
  invoke void @__cxa_end_catch()
          to label %27 unwind label %28

27:                                               ; preds = %25, %11
  %.merged = phi { ptr, i32 } [ %26, %25 ], [ %12, %11 ]
  resume { ptr, i32 } %.merged

28:                                               ; preds = %25
  %29 = landingpad { ptr, i32 }
          catch ptr null
  %30 = extractvalue { ptr, i32 } %29, 0
  tail call void @__clang_call_terminate(ptr %30) #31
  unreachable
}